target datalayout = "e-m:e-p270:32:32-p271:32:32-p272:64:64-i64:64-i128:128-f80:128-n8:16:32:64-S128"
target triple = "x86_64-pc-linux-gnu"

%struct.PyVarObject = type { %struct._object, i64 }
%struct._object = type { %union.anon, ptr }
%union.anon = type { i64 }
%struct._PyManagedBufferObject = type { %struct._object, i32, i64, %struct.Py_buffer }
%struct.Py_buffer = type { ptr, ptr, i64, i64, i32, i32, ptr, ptr, ptr, ptr, ptr }
%struct.PyMemoryViewObject = type { %struct.PyVarObject, ptr, i64, i32, i64, %struct.Py_buffer, ptr, [1 x i64] }
%struct.anon = type { i32, i32 }

@PyExc_ValueError = external global ptr, align 8
@PyExc_BufferError = external global ptr, align 8
@.str.8 = private unnamed_addr constant [50 x i8] c"operation forbidden on released memoryview object\00", align 1
@.str.9 = private unnamed_addr constant [48 x i8] c"cannot create new view on restricted memoryview\00", align 1
@.str.32 = private unnamed_addr constant [46 x i8] c"memoryview: underlying buffer is not writable\00", align 1
@.str.33 = private unnamed_addr constant [50 x i8] c"memoryview: underlying buffer is not C-contiguous\00", align 1
@.str.34 = private unnamed_addr constant [56 x i8] c"memoryview: underlying buffer is not Fortran contiguous\00", align 1
@.str.35 = private unnamed_addr constant [48 x i8] c"memoryview: underlying buffer is not contiguous\00", align 1
@.str.36 = private unnamed_addr constant [50 x i8] c"memoryview: underlying buffer requires suboffsets\00", align 1
@.str.37 = private unnamed_addr constant [72 x i8] c"memoryview: cannot cast to unsigned bytes if the format flag is present\00", align 1

; Function Attrs: alwaysinline nounwind uwtable
define internal void @Py_INCREF(ptr noundef %0) #4 {
  %2 = alloca ptr, align 8
  %3 = alloca i32, align 4
  %4 = alloca i32, align 4
  store ptr %0, ptr %2, align 8, !tbaa !4
  call void @llvm.lifetime.start.p0(i64 4, ptr %3) #9
  %5 = load ptr, ptr %2, align 8, !tbaa !4
  %6 = getelementptr inbounds nuw %struct._object, ptr %5, i32 0, i32 0
  %7 = getelementptr inbounds nuw %struct.anon, ptr %6, i32 0, i32 0
  %8 = load i32, ptr %7, align 8, !tbaa !29
  store i32 %8, ptr %3, align 4, !tbaa !21
  %9 = load i32, ptr %3, align 4, !tbaa !21
  %10 = icmp slt i32 %9, 0
  br i1 %10, label %11, label %12

11:                                               ; preds = %1
  store i32 1, ptr %4, align 4
  br label %18

12:                                               ; preds = %1
  %13 = load i32, ptr %3, align 4, !tbaa !21
  %14 = add i32 %13, 1
  %15 = load ptr, ptr %2, align 8, !tbaa !4
  %16 = getelementptr inbounds nuw %struct._object, ptr %15, i32 0, i32 0
  %17 = getelementptr inbounds nuw %struct.anon, ptr %16, i32 0, i32 0
  store i32 %14, ptr %17, align 8, !tbaa !29
  store i32 0, ptr %4, align 4
  br label %18

18:                                               ; preds = %12, %11
  call void @llvm.lifetime.end.p0(i64 4, ptr %3) #9
  %19 = load i32, ptr %4, align 4
  switch i32 %19, label %21 [
    i32 0, label %20
    i32 1, label %20
  ]

20:                                               ; preds = %18, %18
  ret void

21:                                               ; preds = %18
  unreachable
}

; Function Attrs: inlinehint nounwind uwtable
define internal ptr @_Py_NewRef(ptr noundef %0) #3 {
  %2 = alloca ptr, align 8
  store ptr %0, ptr %2, align 8, !tbaa !4
  %3 = load ptr, ptr %2, align 8, !tbaa !4
  call void @Py_INCREF(ptr noundef %3)
  %4 = load ptr, ptr %2, align 8, !tbaa !4
  ret ptr %4
}

; Function Attrs: nounwind uwtable
define internal i32 @memory_getbuf(ptr noundef %0, ptr noundef %1, i32 noundef %2) #0 {
  %4 = alloca i32, align 4
  %5 = alloca ptr, align 8
  %6 = alloca ptr, align 8
  %7 = alloca i32, align 4
  %8 = alloca ptr, align 8
  %9 = alloca ptr, align 8
  %10 = alloca i32, align 4
  %11 = alloca i32, align 4
  store ptr %0, ptr %5, align 8, !tbaa !4
  store ptr %1, ptr %6, align 8, !tbaa !9
  store i32 %2, ptr %7, align 4, !tbaa !21
  call void @llvm.lifetime.start.p0(i64 8, ptr %8) #9
  %12 = load ptr, ptr %5, align 8, !tbaa !4
  store ptr %12, ptr %8, align 8, !tbaa !9
  call void @llvm.lifetime.start.p0(i64 8, ptr %9) #9
  %13 = load ptr, ptr %8, align 8, !tbaa !9
  %14 = getelementptr inbounds nuw %struct.PyMemoryViewObject, ptr %13, i32 0, i32 5
  store ptr %14, ptr %9, align 8, !tbaa !9
  call void @llvm.lifetime.start.p0(i64 4, ptr %10) #9
  %15 = load ptr, ptr %8, align 8, !tbaa !9
  %16 = getelementptr inbounds nuw %struct.PyMemoryViewObject, ptr %15, i32 0, i32 3
  %17 = load i32, ptr %16, align 8, !tbaa !33
  store i32 %17, ptr %10, align 4, !tbaa !21
  %18 = load ptr, ptr %8, align 8, !tbaa !9
  %19 = getelementptr inbounds nuw %struct.PyMemoryViewObject, ptr %18, i32 0, i32 3
  %20 = load i32, ptr %19, align 8, !tbaa !33
  %21 = and i32 %20, 1
  %22 = icmp ne i32 %21, 0
  br i1 %22, label %31, label %23

23:                                               ; preds = %3
  %24 = load ptr, ptr %8, align 8, !tbaa !9
  %25 = getelementptr inbounds nuw %struct.PyMemoryViewObject, ptr %24, i32 0, i32 1
  %26 = load ptr, ptr %25, align 8, !tbaa !26
  %27 = getelementptr inbounds nuw %struct._PyManagedBufferObject, ptr %26, i32 0, i32 1
  %28 = load i32, ptr %27, align 8, !tbaa !10
  %29 = and i32 %28, 1
  %30 = icmp ne i32 %29, 0
  br i1 %30, label %31, label %33

31:                                               ; preds = %23, %3
  %32 = load ptr, ptr @PyExc_ValueError, align 8, !tbaa !4
  call void @PyErr_SetString(ptr noundef %32, ptr noundef @.str.8)
  store i32 -1, ptr %4, align 4
  store i32 1, ptr %11, align 4
  br label %142

33:                                               ; preds = %23
  %34 = load ptr, ptr %8, align 8, !tbaa !9
  %35 = getelementptr inbounds nuw %struct.PyMemoryViewObject, ptr %34, i32 0, i32 3
  %36 = load i32, ptr %35, align 8, !tbaa !33
  %37 = and i32 %36, 32
  %38 = icmp ne i32 %37, 0
  br i1 %38, label %39, label %41

39:                                               ; preds = %33
  %40 = load ptr, ptr @PyExc_ValueError, align 8, !tbaa !4
  call void @PyErr_SetString(ptr noundef %40, ptr noundef @.str.9)
  store i32 -1, ptr %4, align 4
  store i32 1, ptr %11, align 4
  br label %142

41:                                               ; preds = %33
  %42 = load ptr, ptr %6, align 8, !tbaa !9
  %43 = load ptr, ptr %9, align 8, !tbaa !9
  call void @llvm.memcpy.p0.p0.i64(ptr align 8 %42, ptr align 8 %43, i64 80, i1 false), !tbaa.struct !31
  %44 = load ptr, ptr %6, align 8, !tbaa !9
  %45 = getelementptr inbounds nuw %struct.Py_buffer, ptr %44, i32 0, i32 1
  store ptr null, ptr %45, align 8, !tbaa !53
  %46 = load i32, ptr %7, align 4, !tbaa !21
  %47 = and i32 %46, 1
  %48 = icmp ne i32 %47, 0
  br i1 %48, label %49, label %56

49:                                               ; preds = %41
  %50 = load ptr, ptr %9, align 8, !tbaa !9
  %51 = getelementptr inbounds nuw %struct.Py_buffer, ptr %50, i32 0, i32 4
  %52 = load i32, ptr %51, align 8, !tbaa !40
  %53 = icmp ne i32 %52, 0
  br i1 %53, label %54, label %56

54:                                               ; preds = %49
  %55 = load ptr, ptr @PyExc_BufferError, align 8, !tbaa !4
  call void @PyErr_SetString(ptr noundef %55, ptr noundef @.str.32)
  store i32 -1, ptr %4, align 4
  store i32 1, ptr %11, align 4
  br label %142

56:                                               ; preds = %49, %41
  %57 = load i32, ptr %7, align 4, !tbaa !21
  %58 = and i32 %57, 4
  %59 = icmp ne i32 %58, 0
  br i1 %59, label %63, label %60

60:                                               ; preds = %56
  %61 = load ptr, ptr %6, align 8, !tbaa !9
  %62 = getelementptr inbounds nuw %struct.Py_buffer, ptr %61, i32 0, i32 6
  store ptr null, ptr %62, align 8, !tbaa !42
  br label %63

63:                                               ; preds = %60, %56
  %64 = load i32, ptr %7, align 4, !tbaa !21
  %65 = and i32 %64, 56
  %66 = icmp eq i32 %65, 56
  br i1 %66, label %67, label %73

67:                                               ; preds = %63
  %68 = load i32, ptr %10, align 4, !tbaa !21
  %69 = and i32 %68, 10
  %70 = icmp ne i32 %69, 0
  br i1 %70, label %73, label %71

71:                                               ; preds = %67
  %72 = load ptr, ptr @PyExc_BufferError, align 8, !tbaa !4
  call void @PyErr_SetString(ptr noundef %72, ptr noundef @.str.33)
  store i32 -1, ptr %4, align 4
  store i32 1, ptr %11, align 4
  br label %142

73:                                               ; preds = %67, %63
  %74 = load i32, ptr %7, align 4, !tbaa !21
  %75 = and i32 %74, 88
  %76 = icmp eq i32 %75, 88
  br i1 %76, label %77, label %83

77:                                               ; preds = %73
  %78 = load i32, ptr %10, align 4, !tbaa !21
  %79 = and i32 %78, 12
  %80 = icmp ne i32 %79, 0
  br i1 %80, label %83, label %81

81:                                               ; preds = %77
  %82 = load ptr, ptr @PyExc_BufferError, align 8, !tbaa !4
  call void @PyErr_SetString(ptr noundef %82, ptr noundef @.str.34)
  store i32 -1, ptr %4, align 4
  store i32 1, ptr %11, align 4
  br label %142

83:                                               ; preds = %77, %73
  %84 = load i32, ptr %7, align 4, !tbaa !21
  %85 = and i32 %84, 152
  %86 = icmp eq i32 %85, 152
  br i1 %86, label %87, label %93

87:                                               ; preds = %83
  %88 = load i32, ptr %10, align 4, !tbaa !21
  %89 = and i32 %88, 14
  %90 = icmp ne i32 %89, 0
  br i1 %90, label %93, label %91

91:                                               ; preds = %87
  %92 = load ptr, ptr @PyExc_BufferError, align 8, !tbaa !4
  call void @PyErr_SetString(ptr noundef %92, ptr noundef @.str.35)
  store i32 -1, ptr %4, align 4
  store i32 1, ptr %11, align 4
  br label %142

93:                                               ; preds = %87, %83
  %94 = load i32, ptr %7, align 4, !tbaa !21
  %95 = and i32 %94, 280
  %96 = icmp eq i32 %95, 280
  br i1 %96, label %103, label %97

97:                                               ; preds = %93
  %98 = load i32, ptr %10, align 4, !tbaa !21
  %99 = and i32 %98, 16
  %100 = icmp ne i32 %99, 0
  br i1 %100, label %101, label %103

101:                                              ; preds = %97
  %102 = load ptr, ptr @PyExc_BufferError, align 8, !tbaa !4
  call void @PyErr_SetString(ptr noundef %102, ptr noundef @.str.36)
  store i32 -1, ptr %4, align 4
  store i32 1, ptr %11, align 4
  br label %142

103:                                              ; preds = %97, %93
  %104 = load i32, ptr %7, align 4, !tbaa !21
  %105 = and i32 %104, 24
  %106 = icmp eq i32 %105, 24
  br i1 %106, label %116, label %107

107:                                              ; preds = %103
  %108 = load i32, ptr %10, align 4, !tbaa !21
  %109 = and i32 %108, 10
  %110 = icmp ne i32 %109, 0
  br i1 %110, label %113, label %111

111:                                              ; preds = %107
  %112 = load ptr, ptr @PyExc_BufferError, align 8, !tbaa !4
  call void @PyErr_SetString(ptr noundef %112, ptr noundef @.str.33)
  store i32 -1, ptr %4, align 4
  store i32 1, ptr %11, align 4
  br label %142

113:                                              ; preds = %107
  %114 = load ptr, ptr %6, align 8, !tbaa !9
  %115 = getelementptr inbounds nuw %struct.Py_buffer, ptr %114, i32 0, i32 8
  store ptr null, ptr %115, align 8, !tbaa !55
  br label %116

116:                                              ; preds = %113, %103
  %117 = load i32, ptr %7, align 4, !tbaa !21
  %118 = and i32 %117, 8
  %119 = icmp eq i32 %118, 8
  br i1 %119, label %133, label %120

120:                                              ; preds = %116
  %121 = load ptr, ptr %6, align 8, !tbaa !9
  %122 = getelementptr inbounds nuw %struct.Py_buffer, ptr %121, i32 0, i32 6
  %123 = load ptr, ptr %122, align 8, !tbaa !42
  %124 = icmp ne ptr %123, null
  br i1 %124, label %125, label %128

125:                                              ; preds = %120
  %126 = load ptr, ptr @PyExc_BufferError, align 8, !tbaa !4
  %127 = call ptr (ptr, ptr, ...) @PyErr_Format(ptr noundef %126, ptr noundef @.str.37)
  store i32 -1, ptr %4, align 4
  store i32 1, ptr %11, align 4
  br label %142

128:                                              ; preds = %120
  %129 = load ptr, ptr %6, align 8, !tbaa !9
  %130 = getelementptr inbounds nuw %struct.Py_buffer, ptr %129, i32 0, i32 5
  store i32 1, ptr %130, align 4, !tbaa !25
  %131 = load ptr, ptr %6, align 8, !tbaa !9
  %132 = getelementptr inbounds nuw %struct.Py_buffer, ptr %131, i32 0, i32 7
  store ptr null, ptr %132, align 8, !tbaa !44
  br label %133

133:                                              ; preds = %128, %116
  %134 = load ptr, ptr %8, align 8, !tbaa !9
  %135 = call ptr @_Py_NewRef(ptr noundef %134)
  %136 = load ptr, ptr %6, align 8, !tbaa !9
  %137 = getelementptr inbounds nuw %struct.Py_buffer, ptr %136, i32 0, i32 1
  store ptr %135, ptr %137, align 8, !tbaa !53
  %138 = load ptr, ptr %8, align 8, !tbaa !9
  %139 = getelementptr inbounds nuw %struct.PyMemoryViewObject, ptr %138, i32 0, i32 4
  %140 = load i64, ptr %139, align 8, !tbaa !155
  %141 = add i64 %140, 1
  store i64 %141, ptr %139, align 8, !tbaa !155
  store i32 0, ptr %4, align 4
  store i32 1, ptr %11, align 4
  br label %142

142:                                              ; preds = %133, %125, %111, %101, %91, %81, %71, %54, %39, %31
  call void @llvm.lifetime.end.p0(i64 4, ptr %10) #9
  call void @llvm.lifetime.end.p0(i64 8, ptr %9) #9
  call void @llvm.lifetime.end.p0(i64 8, ptr %8) #9
  %143 = load i32, ptr %4, align 4
  ret i32 %143
}