; Function Attrs: nounwind uwtable
define internal range(i32 -1, 1) i32 @memory_getbuf(ptr noundef %0, ptr noundef captures(none) %1, i32 noundef %2) #0 {
  %4 = getelementptr inbounds nuw i8, ptr %0, i64 56
  %5 = getelementptr inbounds nuw i8, ptr %0, i64 40
  %6 = load i32, ptr %5, align 8, !tbaa !109
  %7 = and i32 %6, 1
  %.not = icmp eq i32 %7, 0
  br i1 %.not, label %8, label %14

8:                                                ; preds = %3
  %9 = getelementptr inbounds nuw i8, ptr %0, i64 24
  %10 = load ptr, ptr %9, align 8, !tbaa !105
  %11 = getelementptr inbounds nuw i8, ptr %10, i64 16
  %12 = load i32, ptr %11, align 8, !tbaa !4
  %13 = and i32 %12, 1
  %.not31 = icmp eq i32 %13, 0
  br i1 %.not31, label %16, label %14

14:                                               ; preds = %8, %3
  %15 = load ptr, ptr @PyExc_ValueError, align 8, !tbaa !104
  tail call void @PyErr_SetString(ptr noundef %15, ptr noundef nonnull @.str.8) #14
  br label %83

16:                                               ; preds = %8
  %17 = and i32 %6, 32
  %.not32 = icmp eq i32 %17, 0
  br i1 %.not32, label %20, label %18

18:                                               ; preds = %16
  %19 = load ptr, ptr @PyExc_ValueError, align 8, !tbaa !104
  tail call void @PyErr_SetString(ptr noundef %19, ptr noundef nonnull @.str.9) #14
  br label %83

20:                                               ; preds = %16
  tail call void @llvm.memcpy.p0.p0.i64(ptr noundef nonnull align 8 dereferenceable(80) %1, ptr noundef nonnull align 8 dereferenceable(80) %4, i64 80, i1 false), !tbaa.struct !129
  %21 = getelementptr inbounds nuw i8, ptr %1, i64 8
  store ptr null, ptr %21, align 8, !tbaa !116
  %22 = and i32 %2, 1
  %.not33 = icmp eq i32 %22, 0
  br i1 %.not33, label %28, label %23

23:                                               ; preds = %20
  %24 = getelementptr inbounds nuw i8, ptr %0, i64 88
  %25 = load i32, ptr %24, align 8, !tbaa !120
  %.not34 = icmp eq i32 %25, 0
  br i1 %.not34, label %28, label %26

26:                                               ; preds = %23
  %27 = load ptr, ptr @PyExc_BufferError, align 8, !tbaa !104
  tail call void @PyErr_SetString(ptr noundef %27, ptr noundef nonnull @.str.32) #14
  br label %83

28:                                               ; preds = %23, %20
  %29 = and i32 %2, 4
  %.not35 = icmp eq i32 %29, 0
  br i1 %.not35, label %30, label %32

30:                                               ; preds = %28
  %31 = getelementptr inbounds nuw i8, ptr %1, i64 40
  store ptr null, ptr %31, align 8, !tbaa !121
  br label %32

32:                                               ; preds = %30, %28
  %33 = and i32 %2, 56
  %34 = icmp eq i32 %33, 56
  %35 = and i32 %6, 10
  %.not36 = icmp eq i32 %35, 0
  %or.cond = and i1 %34, %.not36
  br i1 %or.cond, label %36, label %38

36:                                               ; preds = %32
  %37 = load ptr, ptr @PyExc_BufferError, align 8, !tbaa !104
  tail call void @PyErr_SetString(ptr noundef %37, ptr noundef nonnull @.str.33) #14
  br label %83

38:                                               ; preds = %32
  %39 = and i32 %2, 88
  %40 = icmp eq i32 %39, 88
  %41 = and i32 %6, 12
  %.not37 = icmp eq i32 %41, 0
  %or.cond43 = and i1 %40, %.not37
  br i1 %or.cond43, label %42, label %44

42:                                               ; preds = %38
  %43 = load ptr, ptr @PyExc_BufferError, align 8, !tbaa !104
  tail call void @PyErr_SetString(ptr noundef %43, ptr noundef nonnull @.str.34) #14
  br label %83

44:                                               ; preds = %38
  %45 = and i32 %2, 152
  %46 = icmp eq i32 %45, 152
  %47 = and i32 %6, 14
  %.not38 = icmp eq i32 %47, 0
  %or.cond44 = and i1 %46, %.not38
  br i1 %or.cond44, label %48, label %50

48:                                               ; preds = %44
  %49 = load ptr, ptr @PyExc_BufferError, align 8, !tbaa !104
  tail call void @PyErr_SetString(ptr noundef %49, ptr noundef nonnull @.str.35) #14
  br label %83

50:                                               ; preds = %44
  %51 = and i32 %2, 280
  %52 = icmp eq i32 %51, 280
  %53 = and i32 %6, 16
  %.not39 = icmp eq i32 %53, 0
  %or.cond45 = or i1 %52, %.not39
  br i1 %or.cond45, label %56, label %54

54:                                               ; preds = %50
  %55 = load ptr, ptr @PyExc_BufferError, align 8, !tbaa !104
  tail call void @PyErr_SetString(ptr noundef %55, ptr noundef nonnull @.str.36) #14
  br label %83

56:                                               ; preds = %50
  %57 = and i32 %2, 24
  %58 = icmp eq i32 %57, 24
  br i1 %58, label %64, label %59

59:                                               ; preds = %56
  br i1 %.not36, label %60, label %62

60:                                               ; preds = %59
  %61 = load ptr, ptr @PyExc_BufferError, align 8, !tbaa !104
  tail call void @PyErr_SetString(ptr noundef %61, ptr noundef nonnull @.str.33) #14
  br label %83

62:                                               ; preds = %59
  %63 = getelementptr inbounds nuw i8, ptr %1, i64 56
  store ptr null, ptr %63, align 8, !tbaa !128
  br label %64

64:                                               ; preds = %62, %56
  %65 = and i32 %2, 8
  %.not41 = icmp eq i32 %65, 0
  br i1 %.not41, label %66, label %75

66:                                               ; preds = %64
  %67 = getelementptr inbounds nuw i8, ptr %1, i64 40
  %68 = load ptr, ptr %67, align 8, !tbaa !121
  %.not42 = icmp eq ptr %68, null
  br i1 %.not42, label %72, label %69

69:                                               ; preds = %66
  %70 = load ptr, ptr @PyExc_BufferError, align 8, !tbaa !104
  %71 = tail call ptr (ptr, ptr, ...) @PyErr_Format(ptr noundef %70, ptr noundef nonnull @.str.37) #14
  br label %83

72:                                               ; preds = %66
  %73 = getelementptr inbounds nuw i8, ptr %1, i64 36
  store i32 1, ptr %73, align 4, !tbaa !103
  %74 = getelementptr inbounds nuw i8, ptr %1, i64 48
  store ptr null, ptr %74, align 8, !tbaa !127
  br label %75

75:                                               ; preds = %72, %64
  %76 = load i32, ptr %0, align 8, !tbaa !102
  %77 = icmp slt i32 %76, 0
  br i1 %77, label %_Py_NewRef.exit, label %78

78:                                               ; preds = %75
  %79 = add nuw i32 %76, 1
  store i32 %79, ptr %0, align 8, !tbaa !102
  br label %_Py_NewRef.exit

_Py_NewRef.exit:                                  ; preds = %75, %78
  store ptr %0, ptr %21, align 8, !tbaa !116
  %80 = getelementptr inbounds nuw i8, ptr %0, i64 48
  %81 = load i64, ptr %80, align 8, !tbaa !110
  %82 = add i64 %81, 1
  store i64 %82, ptr %80, align 8, !tbaa !110
  br label %83

83:                                               ; preds = %_Py_NewRef.exit, %69, %60, %54, %48, %42, %36, %26, %18, %14
  %.0 = phi i32 [ -1, %14 ], [ -1, %18 ], [ -1, %26 ], [ 0, %_Py_NewRef.exit ], [ -1, %69 ], [ -1, %60 ], [ -1, %54 ], [ -1, %48 ], [ -1, %42 ], [ -1, %36 ]
  ret i32 %.0
}